target datalayout = "e-m:e-p270:32:32-p271:32:32-p272:64:64-i64:64-i128:128-f80:128-n8:16:32:64-S128"
target triple = "x86_64-pc-linux-gnu"

%struct.client_response = type { ptr }

@.str.10 = private unnamed_addr constant [29 x i8] c"cmd=finalize-response;rc=%d;\00", align 1

; Function Attrs: nounwind uwtable
define internal i32 @_handle_finalize(i32 noundef %0, i32 noundef %1, ptr noundef %2) #0 {
  %4 = alloca i32, align 4
  %5 = alloca i32, align 4
  %6 = alloca ptr, align 8
  %7 = alloca ptr, align 8
  %8 = alloca i32, align 4
  store i32 %0, ptr %4, align 4
  store i32 %1, ptr %5, align 4
  store ptr %2, ptr %6, align 8
  call void @llvm.lifetime.start.p0(i64 8, ptr %7) #6
  call void @llvm.lifetime.start.p0(i64 4, ptr %8) #6
  store i32 0, ptr %8, align 4
  %9 = call ptr @client_resp_new()
  store ptr %9, ptr %7, align 8
  br label %10

10:                                               ; preds = %3
  %11 = load ptr, ptr %7, align 8
  %12 = getelementptr inbounds nuw %struct.client_response, ptr %11, i32 0, i32 0
  %13 = load i32, ptr %8, align 4
  call void (ptr, ptr, ...) @slurm_xstrfmtcat(ptr noundef %12, ptr noundef @.str.10, i32 noundef %13)
  br label %14

14:                                               ; preds = %10
  br label %15

15:                                               ; preds = %14
  %16 = load ptr, ptr %7, align 8
  %17 = load i32, ptr %4, align 4
  %18 = call i32 @client_resp_send(ptr noundef %16, i32 noundef %17)
  store i32 %18, ptr %8, align 4
  %19 = load ptr, ptr %7, align 8
  call void @client_resp_free(ptr noundef %19)
  %20 = load i32, ptr %4, align 4
  %21 = call i32 @shutdown(i32 noundef %20, i32 noundef 2) #6
  %22 = load i32, ptr %4, align 4
  %23 = call i32 @close(i32 noundef %22)
  %24 = load i32, ptr %5, align 4
  call void @task_finalize(i32 noundef %24)
  %25 = load i32, ptr %8, align 4
  call void @llvm.lifetime.end.p0(i64 4, ptr %8) #6
  call void @llvm.lifetime.end.p0(i64 8, ptr %7) #6
  ret i32 %25
}