; Function Attrs: nounwind uwtable
define internal i32 @_handle_finalize(i32 noundef %0, i32 noundef %1, ptr readnone captures(none) %2) #0 {
  %4 = tail call ptr @client_resp_new() #7
  tail call void (ptr, ptr, ...) @slurm_xstrfmtcat(ptr noundef %4, ptr noundef nonnull @.str.10, i32 noundef 0) #7
  %5 = tail call i32 @client_resp_send(ptr noundef %4, i32 noundef %0) #7
  tail call void @client_resp_free(ptr noundef %4) #7
  %6 = tail call i32 @shutdown(i32 noundef %0, i32 noundef 2) #7
  %7 = tail call i32 @close(i32 noundef %0) #7
  tail call void @task_finalize(i32 noundef %1) #7
  ret i32 %5
}